target datalayout = "e-m:e-p270:32:32-p271:32:32-p272:64:64-i64:64-i128:128-f80:128-n8:16:32:64-S128"
target triple = "x86_64-pc-linux-gnu"

%struct.dt_pthread_mutex_t = type { %union.pthread_mutex_t }
%union.pthread_mutex_t = type { %struct.__pthread_mutex_s }
%struct.__pthread_mutex_s = type { i32, i32, i32, i32, i32, i16, i16, %struct.__pthread_internal_list }
%struct.__pthread_internal_list = type { ptr, ptr }
%struct.dt_iop_module_t = type { i32, ptr, ptr, ptr, ptr, ptr, ptr, ptr, ptr, ptr, ptr, ptr, ptr, ptr, ptr, ptr, ptr, ptr, ptr, ptr, ptr, ptr, ptr, ptr, ptr, ptr, ptr, ptr, ptr, ptr, ptr, ptr, ptr, ptr, ptr, ptr, ptr, ptr, ptr, ptr, ptr, ptr, ptr, ptr, ptr, ptr, ptr, ptr, ptr, ptr, ptr, ptr, ptr, ptr, ptr, ptr, ptr, [20 x i8], i32, i32, i32, i32, i32, i32, i32, [8 x i8], [4 x float], [4 x float], [4 x float], [4 x float], [4 x float], [4 x float], ptr, %struct.dt_dev_histogram_stats_t, [4 x i32], i32, i32, ptr, i32, i32, ptr, ptr, i32, ptr, %struct.dt_pthread_mutex_t, ptr, ptr, ptr, ptr, %struct.anon, ptr, ptr, ptr, ptr, ptr, ptr, ptr, i32, ptr, ptr, ptr, ptr, ptr, ptr, ptr, i32, ptr, i32, [128 x i8], i32, ptr, ptr, i32, [12 x i8] }
%struct.dt_dev_histogram_stats_t = type { i32, i64, i32, i32 }
%struct.anon = type { %struct.anon.0, %struct.anon.1 }
%struct.anon.0 = type { ptr, ptr }
%struct.anon.1 = type { ptr, i32 }
%struct.dt_iop_gui_blend_data_t = type { i32, i32, i32, i32, i32, i32, i32, ptr, ptr, ptr, ptr, ptr, ptr, ptr, ptr, ptr, ptr, ptr, ptr, ptr, [2 x %struct.dt_iop_gui_blendif_filter_t], ptr, ptr, ptr, ptr, ptr, ptr, ptr, ptr, ptr, ptr, ptr, ptr, i32, i32, ptr, i32, [8 x [2 x i32]], i32, i32, ptr, i32, ptr, ptr, ptr, [5 x ptr], [5 x i32], ptr, ptr, ptr, i32, ptr, ptr, i32, %struct.dt_pthread_mutex_t }
%struct.dt_iop_gui_blendif_filter_t = type { ptr, ptr, [4 x ptr], ptr, ptr, ptr }
%struct.dt_iop_gui_blendif_channel_t = type { ptr, ptr, float, i32, ptr, i32, float, [2 x i32], i32, ptr, ptr, ptr }
%struct.dt_develop_blend_params_t = type { i32, i32, i32, float, float, i32, i32, i32, float, i32, float, float, float, float, i32, [2 x i32], [64 x float], [16 x float], [20 x i8], i32, i32, i32 }

@.str.206 = private unnamed_addr constant [8 x i8] c"changed\00", align 1

; Function Attrs: nounwind uwtable
define internal void @_blendop_blendif_highlight_changed_tabs(ptr noundef %0) #0 {
  %2 = alloca ptr, align 8
  %3 = alloca ptr, align 8
  %4 = alloca ptr, align 8
  %5 = alloca ptr, align 8
  %6 = alloca i32, align 4
  %7 = alloca i32, align 4
  %8 = alloca i32, align 4
  %9 = alloca ptr, align 8
  %10 = alloca i32, align 4
  %11 = alloca i32, align 4
  %12 = alloca ptr, align 8
  %13 = alloca ptr, align 8
  %14 = alloca i32, align 4
  %15 = alloca ptr, align 8
  store ptr %0, ptr %2, align 8, !tbaa !6
  call void @llvm.lifetime.start.p0(i64 8, ptr %3) #11
  %16 = load ptr, ptr %2, align 8, !tbaa !6
  %17 = getelementptr inbounds nuw %struct.dt_iop_module_t, ptr %16, i32 0, i32 88
  %18 = load ptr, ptr %17, align 8, !tbaa !15
  store ptr %18, ptr %3, align 8, !tbaa !31
  call void @llvm.lifetime.start.p0(i64 8, ptr %4) #11
  %19 = load ptr, ptr %2, align 8, !tbaa !6
  %20 = getelementptr inbounds nuw %struct.dt_iop_module_t, ptr %19, i32 0, i32 86
  %21 = load ptr, ptr %20, align 8, !tbaa !77
  store ptr %21, ptr %4, align 8, !tbaa !78
  call void @llvm.lifetime.start.p0(i64 8, ptr %5) #11
  %22 = load ptr, ptr %2, align 8, !tbaa !6
  %23 = getelementptr inbounds nuw %struct.dt_iop_module_t, ptr %22, i32 0, i32 87
  %24 = load ptr, ptr %23, align 16, !tbaa !143
  store ptr %24, ptr %5, align 8, !tbaa !78
  call void @llvm.lifetime.start.p0(i64 4, ptr %6) #11
  store i32 0, ptr %6, align 4, !tbaa !80
  br label %25

25:                                               ; preds = %122, %1
  %26 = load ptr, ptr %3, align 8, !tbaa !31
  %27 = getelementptr inbounds nuw %struct.dt_iop_gui_blend_data_t, ptr %26, i32 0, i32 35
  %28 = load ptr, ptr %27, align 8, !tbaa !85
  %29 = load i32, ptr %6, align 4, !tbaa !80
  %30 = sext i32 %29 to i64
  %31 = getelementptr inbounds %struct.dt_iop_gui_blendif_channel_t, ptr %28, i64 %30
  %32 = getelementptr inbounds nuw %struct.dt_iop_gui_blendif_channel_t, ptr %31, i32 0, i32 0
  %33 = load ptr, ptr %32, align 8, !tbaa !163
  %34 = icmp ne ptr %33, null
  br i1 %34, label %36, label %35

35:                                               ; preds = %25
  store i32 2, ptr %7, align 4
  call void @llvm.lifetime.end.p0(i64 4, ptr %6) #11
  br label %125

36:                                               ; preds = %25
  call void @llvm.lifetime.start.p0(i64 4, ptr %8) #11
  store i32 0, ptr %8, align 4, !tbaa !80
  call void @llvm.lifetime.start.p0(i64 8, ptr %9) #11
  %37 = load ptr, ptr %3, align 8, !tbaa !31
  %38 = getelementptr inbounds nuw %struct.dt_iop_gui_blend_data_t, ptr %37, i32 0, i32 35
  %39 = load ptr, ptr %38, align 8, !tbaa !85
  %40 = load i32, ptr %6, align 4, !tbaa !80
  %41 = sext i32 %40 to i64
  %42 = getelementptr inbounds %struct.dt_iop_gui_blendif_channel_t, ptr %39, i64 %41
  store ptr %42, ptr %9, align 8, !tbaa !86
  call void @llvm.lifetime.start.p0(i64 4, ptr %10) #11
  store i32 1, ptr %10, align 4, !tbaa !80
  br label %43

43:                                               ; preds = %102, %36
  %44 = load i32, ptr %10, align 4, !tbaa !80
  %45 = icmp sge i32 %44, 0
  br i1 %45, label %47, label %46

46:                                               ; preds = %43
  store i32 5, ptr %7, align 4
  call void @llvm.lifetime.end.p0(i64 4, ptr %10) #11
  br label %105

47:                                               ; preds = %43
  call void @llvm.lifetime.start.p0(i64 4, ptr %11) #11
  %48 = load ptr, ptr %9, align 8, !tbaa !86
  %49 = getelementptr inbounds nuw %struct.dt_iop_gui_blendif_channel_t, ptr %48, i32 0, i32 7
  %50 = load i32, ptr %10, align 4, !tbaa !80
  %51 = sext i32 %50 to i64
  %52 = getelementptr inbounds [2 x i32], ptr %49, i64 0, i64 %51
  %53 = load i32, ptr %52, align 4, !tbaa !80
  store i32 %53, ptr %11, align 4, !tbaa !80
  call void @llvm.lifetime.start.p0(i64 8, ptr %12) #11
  %54 = load ptr, ptr %4, align 8, !tbaa !78
  %55 = getelementptr inbounds nuw %struct.dt_develop_blend_params_t, ptr %54, i32 0, i32 16
  %56 = load i32, ptr %11, align 4, !tbaa !80
  %57 = mul i32 4, %56
  %58 = zext i32 %57 to i64
  %59 = getelementptr inbounds nuw [64 x float], ptr %55, i64 0, i64 %58
  store ptr %59, ptr %12, align 8, !tbaa !89
  call void @llvm.lifetime.start.p0(i64 8, ptr %13) #11
  %60 = load ptr, ptr %5, align 8, !tbaa !78
  %61 = getelementptr inbounds nuw %struct.dt_develop_blend_params_t, ptr %60, i32 0, i32 16
  %62 = load i32, ptr %11, align 4, !tbaa !80
  %63 = mul i32 4, %62
  %64 = zext i32 %63 to i64
  %65 = getelementptr inbounds nuw [64 x float], ptr %61, i64 0, i64 %64
  store ptr %65, ptr %13, align 8, !tbaa !89
  call void @llvm.lifetime.start.p0(i64 4, ptr %14) #11
  store i32 0, ptr %14, align 4, !tbaa !80
  br label %66

66:                                               ; preds = %85, %47
  %67 = load i32, ptr %14, align 4, !tbaa !80
  %68 = icmp slt i32 %67, 4
  br i1 %68, label %70, label %69

69:                                               ; preds = %66
  store i32 8, ptr %7, align 4
  call void @llvm.lifetime.end.p0(i64 4, ptr %14) #11
  br label %88

70:                                               ; preds = %66
  %71 = load ptr, ptr %12, align 8, !tbaa !89
  %72 = load i32, ptr %14, align 4, !tbaa !80
  %73 = sext i32 %72 to i64
  %74 = getelementptr inbounds float, ptr %71, i64 %73
  %75 = load float, ptr %74, align 4, !tbaa !83
  %76 = load ptr, ptr %13, align 8, !tbaa !89
  %77 = load i32, ptr %14, align 4, !tbaa !80
  %78 = sext i32 %77 to i64
  %79 = getelementptr inbounds float, ptr %76, i64 %78
  %80 = load float, ptr %79, align 4, !tbaa !83
  %81 = fcmp reassoc nsz arcp contract afn une float %75, %80
  %82 = zext i1 %81 to i32
  %83 = load i32, ptr %8, align 4, !tbaa !80
  %84 = or i32 %83, %82
  store i32 %84, ptr %8, align 4, !tbaa !80
  br label %85

85:                                               ; preds = %70
  %86 = load i32, ptr %14, align 4, !tbaa !80
  %87 = add nsw i32 %86, 1
  store i32 %87, ptr %14, align 4, !tbaa !80
  br label %66

88:                                               ; preds = %69
  %89 = load ptr, ptr %4, align 8, !tbaa !78
  %90 = getelementptr inbounds nuw %struct.dt_develop_blend_params_t, ptr %89, i32 0, i32 7
  %91 = load i32, ptr %90, align 4, !tbaa !129
  %92 = load ptr, ptr %5, align 8, !tbaa !78
  %93 = getelementptr inbounds nuw %struct.dt_develop_blend_params_t, ptr %92, i32 0, i32 7
  %94 = load i32, ptr %93, align 4, !tbaa !129
  %95 = xor i32 %91, %94
  %96 = load i32, ptr %11, align 4, !tbaa !80
  %97 = add i32 %96, 16
  %98 = shl i32 1, %97
  %99 = and i32 %95, %98
  %100 = load i32, ptr %8, align 4, !tbaa !80
  %101 = or i32 %100, %99
  store i32 %101, ptr %8, align 4, !tbaa !80
  call void @llvm.lifetime.end.p0(i64 8, ptr %13) #11
  call void @llvm.lifetime.end.p0(i64 8, ptr %12) #11
  call void @llvm.lifetime.end.p0(i64 4, ptr %11) #11
  br label %102

102:                                              ; preds = %88
  %103 = load i32, ptr %10, align 4, !tbaa !80
  %104 = add nsw i32 %103, -1
  store i32 %104, ptr %10, align 4, !tbaa !80
  br label %43

105:                                              ; preds = %46
  call void @llvm.lifetime.start.p0(i64 8, ptr %15) #11
  %106 = load ptr, ptr %3, align 8, !tbaa !31
  %107 = getelementptr inbounds nuw %struct.dt_iop_gui_blend_data_t, ptr %106, i32 0, i32 40
  %108 = load ptr, ptr %107, align 8, !tbaa !162
  %109 = load ptr, ptr %3, align 8, !tbaa !31
  %110 = getelementptr inbounds nuw %struct.dt_iop_gui_blend_data_t, ptr %109, i32 0, i32 40
  %111 = load ptr, ptr %110, align 8, !tbaa !162
  %112 = load i32, ptr %6, align 4, !tbaa !80
  %113 = call ptr @gtk_notebook_get_nth_page(ptr noundef %111, i32 noundef %112)
  %114 = call ptr @gtk_notebook_get_tab_label(ptr noundef %108, ptr noundef %113)
  store ptr %114, ptr %15, align 8, !tbaa !11
  %115 = load i32, ptr %8, align 4, !tbaa !80
  %116 = icmp ne i32 %115, 0
  br i1 %116, label %117, label %119

117:                                              ; preds = %105
  %118 = load ptr, ptr %15, align 8, !tbaa !11
  call void @dt_gui_add_class(ptr noundef %118, ptr noundef @.str.206)
  br label %121

119:                                              ; preds = %105
  %120 = load ptr, ptr %15, align 8, !tbaa !11
  call void @dt_gui_remove_class(ptr noundef %120, ptr noundef @.str.206)
  br label %121

121:                                              ; preds = %119, %117
  call void @llvm.lifetime.end.p0(i64 8, ptr %15) #11
  call void @llvm.lifetime.end.p0(i64 8, ptr %9) #11
  call void @llvm.lifetime.end.p0(i64 4, ptr %8) #11
  br label %122

122:                                              ; preds = %121
  %123 = load i32, ptr %6, align 4, !tbaa !80
  %124 = add nsw i32 %123, 1
  store i32 %124, ptr %6, align 4, !tbaa !80
  br label %25

125:                                              ; preds = %35
  call void @llvm.lifetime.end.p0(i64 8, ptr %5) #11
  call void @llvm.lifetime.end.p0(i64 8, ptr %4) #11
  call void @llvm.lifetime.end.p0(i64 8, ptr %3) #11
  ret void
}