; Function Attrs: nounwind uwtable
define internal fastcc void @_blendop_blendif_highlight_changed_tabs(ptr noundef readonly captures(none) %0) unnamed_addr #0 {
  %2 = getelementptr inbounds nuw i8, ptr %0, i64 776
  %3 = load ptr, ptr %2, align 8, !tbaa !6
  %4 = getelementptr inbounds nuw i8, ptr %3, i64 384
  %5 = load ptr, ptr %4, align 8, !tbaa !76
  %6 = load ptr, ptr %5, align 8, !tbaa !149
  %.not40 = icmp eq ptr %6, null
  br i1 %.not40, label %._crit_edge, label %.preheader.lr.ph

.preheader.lr.ph:                                 ; preds = %1
  %7 = getelementptr inbounds nuw i8, ptr %0, i64 768
  %8 = load ptr, ptr %7, align 16, !tbaa !128
  %9 = getelementptr inbounds nuw i8, ptr %0, i64 760
  %10 = load ptr, ptr %9, align 8, !tbaa !71
  %11 = getelementptr inbounds nuw i8, ptr %10, i64 68
  %12 = getelementptr inbounds nuw i8, ptr %8, i64 68
  %13 = getelementptr inbounds nuw i8, ptr %10, i64 28
  %14 = getelementptr inbounds nuw i8, ptr %8, i64 28
  %15 = getelementptr inbounds nuw i8, ptr %3, i64 472
  br label %.preheader

.preheader:                                       ; preds = %.preheader.lr.ph, %48
  %indvars.iv47 = phi i64 [ 0, %.preheader.lr.ph ], [ %indvars.iv.next48, %48 ]
  %16 = phi ptr [ %5, %.preheader.lr.ph ], [ %50, %48 ]
  %17 = getelementptr inbounds nuw i8, ptr %16, i64 40
  %18 = load i32, ptr %13, align 4, !tbaa !116
  %19 = load i32, ptr %14, align 4, !tbaa !116
  %20 = xor i32 %19, %18
  br label %26

._crit_edge:                                      ; preds = %48, %1
  ret void

21:                                               ; preds = %33
  %22 = load ptr, ptr %15, align 8, !tbaa !148
  %23 = trunc nuw nsw i64 %indvars.iv47 to i32
  %24 = tail call ptr @gtk_notebook_get_nth_page(ptr noundef %22, i32 noundef %23) #18
  %25 = tail call ptr @gtk_notebook_get_tab_label(ptr noundef %22, ptr noundef %24) #18
  %.not35 = icmp eq i32 %37, 0
  br i1 %.not35, label %47, label %46

26:                                               ; preds = %.preheader, %33
  %indvars.iv44 = phi i64 [ 1, %.preheader ], [ %indvars.iv.next45, %33 ]
  %.03339 = phi i32 [ 0, %.preheader ], [ %37, %33 ]
  %27 = getelementptr inbounds nuw [2 x i32], ptr %17, i64 0, i64 %indvars.iv44
  %28 = load i32, ptr %27, align 4, !tbaa !77
  %29 = shl i32 %28, 2
  %30 = zext i32 %29 to i64
  %31 = getelementptr inbounds nuw [64 x float], ptr %11, i64 0, i64 %30
  %32 = getelementptr inbounds nuw [64 x float], ptr %12, i64 0, i64 %30
  br label %38

33:                                               ; preds = %38
  %34 = add i32 %28, 16
  %35 = shl nuw i32 1, %34
  %36 = and i32 %20, %35
  %37 = or i32 %36, %45
  %indvars.iv.next45 = add nsw i64 %indvars.iv44, -1
  %.not50 = icmp eq i64 %indvars.iv44, 0
  br i1 %.not50, label %21, label %26

38:                                               ; preds = %26, %38
  %indvars.iv = phi i64 [ 0, %26 ], [ %indvars.iv.next, %38 ]
  %.136 = phi i32 [ %.03339, %26 ], [ %45, %38 ]
  %39 = getelementptr inbounds nuw float, ptr %31, i64 %indvars.iv
  %40 = load float, ptr %39, align 4, !tbaa !74
  %41 = getelementptr inbounds nuw float, ptr %32, i64 %indvars.iv
  %42 = load float, ptr %41, align 4, !tbaa !74
  %43 = fcmp reassoc nsz arcp contract afn une float %40, %42
  %44 = zext i1 %43 to i32
  %45 = or i32 %.136, %44
  %indvars.iv.next = add nuw nsw i64 %indvars.iv, 1
  %exitcond.not = icmp eq i64 %indvars.iv.next, 4
  br i1 %exitcond.not, label %33, label %38

46:                                               ; preds = %21
  tail call void @dt_gui_add_class(ptr noundef %25, ptr noundef nonnull @.str.206) #18
  br label %48

47:                                               ; preds = %21
  tail call void @dt_gui_remove_class(ptr noundef %25, ptr noundef nonnull @.str.206) #18
  br label %48

48:                                               ; preds = %47, %46
  %indvars.iv.next48 = add nuw nsw i64 %indvars.iv47, 1
  %49 = load ptr, ptr %4, align 8, !tbaa !76
  %50 = getelementptr inbounds nuw %struct.dt_iop_gui_blendif_channel_t, ptr %49, i64 %indvars.iv.next48
  %51 = load ptr, ptr %50, align 8, !tbaa !149
  %.not = icmp eq ptr %51, null
  br i1 %.not, label %._crit_edge, label %.preheader
}